; Function Attrs: mustprogress uwtable
define hidden void @_ZN4cvc58internal6theory5arith6mkZeroERKNS0_8TypeNodeE(ptr dead_on_unwind noalias writable sret(%"class.cvc5::internal::NodeTemplate") align 8 %0, ptr noundef nonnull align 8 dereferenceable(8) %1) local_unnamed_addr #4 personality ptr @__gxx_personality_v0 {
  %3 = alloca %"class.cvc5::internal::Rational", align 8
  %4 = tail call noundef ptr @_ZN4cvc58internal11NodeManager9currentNMEv()
  call void @llvm.lifetime.start.p0(i64 32, ptr nonnull %3) #23
  call void @_ZN4cvc58internal8RationalC2Ei(ptr noundef nonnull align 8 dereferenceable(32) %3, i32 noundef 0)
  invoke void @_ZN4cvc58internal11NodeManager16mkConstRealOrIntERKNS0_8TypeNodeERKNS0_8RationalE(ptr dead_on_unwind writable sret(%"class.cvc5::internal::NodeTemplate") align 8 %0, ptr noundef nonnull align 8 dereferenceable(3560) %4, ptr noundef nonnull align 8 dereferenceable(8) %1, ptr noundef nonnull align 8 dereferenceable(32) %3)
          to label %5 unwind label %9

5:                                                ; preds = %2
  invoke void @__gmpq_clear(ptr noundef nonnull align 8 dereferenceable(32) %3)
          to label %_ZN4cvc58internal8RationalD2Ev.exit unwind label %6

6:                                                ; preds = %5
  %7 = landingpad { ptr, i32 }
          catch ptr null
  %8 = extractvalue { ptr, i32 } %7, 0
  call void @__clang_call_terminate(ptr %8) #24
  unreachable

_ZN4cvc58internal8RationalD2Ev.exit:              ; preds = %5
  call void @llvm.lifetime.end.p0(i64 32, ptr nonnull %3) #23
  ret void

9:                                                ; preds = %2
  %10 = landingpad { ptr, i32 }
          cleanup
  invoke void @__gmpq_clear(ptr noundef nonnull align 8 dereferenceable(32) %3)
          to label %_ZN4cvc58internal8RationalD2Ev.exit2 unwind label %11

11:                                               ; preds = %9
  %12 = landingpad { ptr, i32 }
          catch ptr null
  %13 = extractvalue { ptr, i32 } %12, 0
  call void @__clang_call_terminate(ptr %13) #24
  unreachable

_ZN4cvc58internal8RationalD2Ev.exit2:             ; preds = %9
  call void @llvm.lifetime.end.p0(i64 32, ptr nonnull %3) #23
  resume { ptr, i32 } %10
}